; ModuleID = '21/1495.c'
source_filename = "21/1495.c"
target datalayout = "e-m:e-p270:32:32-p271:32:32-p272:64:64-i64:64-f80:128-n8:16:32:64-S128"
target triple = "x86_64-pc-linux-gnu"

@.str = private unnamed_addr constant [3 x i8] c"%d\00", align 1
@.str.1 = private unnamed_addr constant [4 x i8] c"%d \00", align 1
@.str.2 = private unnamed_addr constant [4 x i8] c"%d\0A\00", align 1
@.str.3 = private unnamed_addr constant [7 x i8] c"%d,%d\0A\00", align 1

; Function Attrs: noinline nounwind uwtable
define dso_local void @main() #0 {
  %1 = alloca i32, align 4
  %2 = alloca [300 x i32], align 16
  %3 = alloca i32, align 4
  %4 = alloca i32, align 4
  %5 = alloca float, align 4
  %6 = alloca float, align 4
  %7 = alloca float, align 4
  %8 = alloca float, align 4
  store float 0.000000e+00, float* %8, align 4
  %9 = call i32 (i8*, ...) @__isoc99_scanf(i8* getelementptr inbounds ([3 x i8], [3 x i8]* @.str, i64 0, i64 0), i32* %1)
  store i32 0, i32* %3, align 4
  br label %10

10:                                               ; preds = %20, %0
  %11 = load i32, i32* %3, align 4
  %12 = load i32, i32* %1, align 4
  %13 = sub nsw i32 %12, 1
  %14 = icmp slt i32 %11, %13
  br i1 %14, label %15, label %23

15:                                               ; preds = %10
  %16 = load i32, i32* %3, align 4
  %17 = sext i32 %16 to i64
  %18 = getelementptr inbounds [300 x i32], [300 x i32]* %2, i64 0, i64 %17
  %19 = call i32 (i8*, ...) @__isoc99_scanf(i8* getelementptr inbounds ([4 x i8], [4 x i8]* @.str.1, i64 0, i64 0), i32* %18)
  br label %20

20:                                               ; preds = %15
  %21 = load i32, i32* %3, align 4
  %22 = add nsw i32 %21, 1
  store i32 %22, i32* %3, align 4
  br label %10

23:                                               ; preds = %10
  %24 = load i32, i32* %1, align 4
  %25 = sub nsw i32 %24, 1
  %26 = sext i32 %25 to i64
  %27 = getelementptr inbounds [300 x i32], [300 x i32]* %2, i64 0, i64 %26
  %28 = call i32 (i8*, ...) @__isoc99_scanf(i8* getelementptr inbounds ([3 x i8], [3 x i8]* @.str, i64 0, i64 0), i32* %27)
  store i32 0, i32* %3, align 4
  br label %29

29:                                               ; preds = %41, %23
  %30 = load i32, i32* %3, align 4
  %31 = load i32, i32* %1, align 4
  %32 = icmp slt i32 %30, %31
  br i1 %32, label %33, label %44

33:                                               ; preds = %29
  %34 = load float, float* %8, align 4
  %35 = load i32, i32* %3, align 4
  %36 = sext i32 %35 to i64
  %37 = getelementptr inbounds [300 x i32], [300 x i32]* %2, i64 0, i64 %36
  %38 = load i32, i32* %37, align 4
  %39 = sitofp i32 %38 to float
  %40 = fadd float %34, %39
  store float %40, float* %8, align 4
  br label %41

41:                                               ; preds = %33
  %42 = load i32, i32* %3, align 4
  %43 = add nsw i32 %42, 1
  store i32 %43, i32* %3, align 4
  br label %29

44:                                               ; preds = %29
  %45 = load float, float* %8, align 4
  %46 = load i32, i32* %1, align 4
  %47 = sitofp i32 %46 to float
  %48 = fdiv float %45, %47
  store float %48, float* %5, align 4
  store i32 1, i32* %3, align 4
  br label %49

49:                                               ; preds = %74, %44
  %50 = load i32, i32* %3, align 4
  %51 = load i32, i32* %1, align 4
  %52 = icmp slt i32 %50, %51
  br i1 %52, label %53, label %77

53:                                               ; preds = %49
  %54 = load i32, i32* %3, align 4
  %55 = sext i32 %54 to i64
  %56 = getelementptr inbounds [300 x i32], [300 x i32]* %2, i64 0, i64 %55
  %57 = load i32, i32* %56, align 4
  %58 = getelementptr inbounds [300 x i32], [300 x i32]* %2, i64 0, i64 0
  %59 = load i32, i32* %58, align 16
  %60 = icmp sgt i32 %57, %59
  br i1 %60, label %61, label %73

61:                                               ; preds = %53
  %62 = load i32, i32* %3, align 4
  %63 = sext i32 %62 to i64
  %64 = getelementptr inbounds [300 x i32], [300 x i32]* %2, i64 0, i64 %63
  %65 = load i32, i32* %64, align 4
  store i32 %65, i32* %4, align 4
  %66 = getelementptr inbounds [300 x i32], [300 x i32]* %2, i64 0, i64 0
  %67 = load i32, i32* %66, align 16
  %68 = load i32, i32* %3, align 4
  %69 = sext i32 %68 to i64
  %70 = getelementptr inbounds [300 x i32], [300 x i32]* %2, i64 0, i64 %69
  store i32 %67, i32* %70, align 4
  %71 = load i32, i32* %4, align 4
  %72 = getelementptr inbounds [300 x i32], [300 x i32]* %2, i64 0, i64 0
  store i32 %71, i32* %72, align 16
  br label %73

73:                                               ; preds = %61, %53
  br label %74

74:                                               ; preds = %73
  %75 = load i32, i32* %3, align 4
  %76 = add nsw i32 %75, 1
  store i32 %76, i32* %3, align 4
  br label %49

77:                                               ; preds = %49
  store i32 0, i32* %3, align 4
  br label %78

78:                                               ; preds = %113, %77
  %79 = load i32, i32* %3, align 4
  %80 = load i32, i32* %1, align 4
  %81 = sub nsw i32 %80, 1
  %82 = icmp slt i32 %79, %81
  br i1 %82, label %83, label %116

83:                                               ; preds = %78
  %84 = load i32, i32* %3, align 4
  %85 = sext i32 %84 to i64
  %86 = getelementptr inbounds [300 x i32], [300 x i32]* %2, i64 0, i64 %85
  %87 = load i32, i32* %86, align 4
  %88 = load i32, i32* %1, align 4
  %89 = sub nsw i32 %88, 1
  %90 = sext i32 %89 to i64
  %91 = getelementptr inbounds [300 x i32], [300 x i32]* %2, i64 0, i64 %90
  %92 = load i32, i32* %91, align 4
  %93 = icmp slt i32 %87, %92
  br i1 %93, label %94, label %112

94:                                               ; preds = %83
  %95 = load i32, i32* %3, align 4
  %96 = sext i32 %95 to i64
  %97 = getelementptr inbounds [300 x i32], [300 x i32]* %2, i64 0, i64 %96
  %98 = load i32, i32* %97, align 4
  store i32 %98, i32* %4, align 4
  %99 = load i32, i32* %1, align 4
  %100 = sub nsw i32 %99, 1
  %101 = sext i32 %100 to i64
  %102 = getelementptr inbounds [300 x i32], [300 x i32]* %2, i64 0, i64 %101
  %103 = load i32, i32* %102, align 4
  %104 = load i32, i32* %3, align 4
  %105 = sext i32 %104 to i64
  %106 = getelementptr inbounds [300 x i32], [300 x i32]* %2, i64 0, i64 %105
  store i32 %103, i32* %106, align 4
  %107 = load i32, i32* %4, align 4
  %108 = load i32, i32* %1, align 4
  %109 = sub nsw i32 %108, 1
  %110 = sext i32 %109 to i64
  %111 = getelementptr inbounds [300 x i32], [300 x i32]* %2, i64 0, i64 %110
  store i32 %107, i32* %111, align 4
  br label %112

112:                                              ; preds = %94, %83
  br label %113

113:                                              ; preds = %112
  %114 = load i32, i32* %3, align 4
  %115 = add nsw i32 %114, 1
  store i32 %115, i32* %3, align 4
  br label %78

116:                                              ; preds = %78
  %117 = getelementptr inbounds [300 x i32], [300 x i32]* %2, i64 0, i64 0
  %118 = load i32, i32* %117, align 16
  %119 = sitofp i32 %118 to float
  %120 = load float, float* %5, align 4
  %121 = fsub float %119, %120
  store float %121, float* %6, align 4
  %122 = load float, float* %5, align 4
  %123 = load i32, i32* %1, align 4
  %124 = sub nsw i32 %123, 1
  %125 = sext i32 %124 to i64
  %126 = getelementptr inbounds [300 x i32], [300 x i32]* %2, i64 0, i64 %125
  %127 = load i32, i32* %126, align 4
  %128 = sitofp i32 %127 to float
  %129 = fsub float %122, %128
  store float %129, float* %7, align 4
  %130 = load float, float* %6, align 4
  %131 = load float, float* %7, align 4
  %132 = fcmp ogt float %130, %131
  br i1 %132, label %133, label %137

133:                                              ; preds = %116
  %134 = getelementptr inbounds [300 x i32], [300 x i32]* %2, i64 0, i64 0
  %135 = load i32, i32* %134, align 16
  %136 = call i32 (i8*, ...) @printf(i8* getelementptr inbounds ([4 x i8], [4 x i8]* @.str.2, i64 0, i64 0), i32 %135)
  br label %158

137:                                              ; preds = %116
  %138 = load float, float* %6, align 4
  %139 = load float, float* %7, align 4
  %140 = fcmp olt float %138, %139
  br i1 %140, label %141, label %148

141:                                              ; preds = %137
  %142 = load i32, i32* %1, align 4
  %143 = sub nsw i32 %142, 1
  %144 = sext i32 %143 to i64
  %145 = getelementptr inbounds [300 x i32], [300 x i32]* %2, i64 0, i64 %144
  %146 = load i32, i32* %145, align 4
  %147 = call i32 (i8*, ...) @printf(i8* getelementptr inbounds ([4 x i8], [4 x i8]* @.str.2, i64 0, i64 0), i32 %146)
  br label %157

148:                                              ; preds = %137
  %149 = load i32, i32* %1, align 4
  %150 = sub nsw i32 %149, 1
  %151 = sext i32 %150 to i64
  %152 = getelementptr inbounds [300 x i32], [300 x i32]* %2, i64 0, i64 %151
  %153 = load i32, i32* %152, align 4
  %154 = getelementptr inbounds [300 x i32], [300 x i32]* %2, i64 0, i64 0
  %155 = load i32, i32* %154, align 16
  %156 = call i32 (i8*, ...) @printf(i8* getelementptr inbounds ([7 x i8], [7 x i8]* @.str.3, i64 0, i64 0), i32 %153, i32 %155)
  br label %157

157:                                              ; preds = %148, %141
  br label %158

158:                                              ; preds = %157, %133
  ret void
}

declare dso_local i32 @__isoc99_scanf(i8*, ...) #1

declare dso_local i32 @printf(i8*, ...) #1


!llvm.module.flags = !{!0}
!llvm.ident = !{!1}

!0 = !{i32 1, !"wchar_size", i32 4}
!1 = !{!"clang version 10.0.0-4ubuntu1 "}
